target datalayout = "e-m:e-p270:32:32-p271:32:32-p272:64:64-i64:64-i128:128-f80:128-n8:16:32:64-S128"
target triple = "x86_64-pc-linux-gnu"

%struct.TupleDescData = type { i32, i32, i32, i32, ptr, [0 x %struct.CompactAttribute] }
%struct.CompactAttribute = type { i32, i16, i8, i8, i8, i8, i8, i8, i8 }
%struct.AttInMetadata = type { ptr, ptr, ptr, ptr }
%struct.FmgrInfo = type { ptr, i32, i16, i8, i8, i8, ptr, ptr, ptr }

; Function Attrs: inlinehint nounwind uwtable
define internal ptr @TupleDescCompactAttr(ptr noundef %0, i32 noundef %1) #4 {
  %3 = alloca ptr, align 8
  %4 = alloca i32, align 4
  %5 = alloca ptr, align 8
  store ptr %0, ptr %3, align 8
  store i32 %1, ptr %4, align 4
  call void @llvm.lifetime.start.p0(i64 8, ptr %5) #10
  %6 = load ptr, ptr %3, align 8
  %7 = getelementptr inbounds nuw %struct.TupleDescData, ptr %6, i32 0, i32 5
  %8 = load i32, ptr %4, align 4
  %9 = sext i32 %8 to i64
  %10 = getelementptr inbounds [0 x %struct.CompactAttribute], ptr %7, i64 0, i64 %9
  store ptr %10, ptr %5, align 8
  %11 = load ptr, ptr %5, align 8
  call void @llvm.lifetime.end.p0(i64 8, ptr %5) #10
  ret ptr %11
}

; Function Attrs: nounwind uwtable
define dso_local ptr @BuildTupleFromCStrings(ptr noundef %0, ptr noundef %1) #0 {
  %3 = alloca ptr, align 8
  %4 = alloca ptr, align 8
  %5 = alloca ptr, align 8
  %6 = alloca i32, align 4
  %7 = alloca ptr, align 8
  %8 = alloca ptr, align 8
  %9 = alloca i32, align 4
  %10 = alloca ptr, align 8
  store ptr %0, ptr %3, align 8
  store ptr %1, ptr %4, align 8
  call void @llvm.lifetime.start.p0(i64 8, ptr %5) #10
  %11 = load ptr, ptr %3, align 8
  %12 = getelementptr inbounds nuw %struct.AttInMetadata, ptr %11, i32 0, i32 0
  %13 = load ptr, ptr %12, align 8
  store ptr %13, ptr %5, align 8
  call void @llvm.lifetime.start.p0(i64 4, ptr %6) #10
  %14 = load ptr, ptr %5, align 8
  %15 = getelementptr inbounds nuw %struct.TupleDescData, ptr %14, i32 0, i32 0
  %16 = load i32, ptr %15, align 8
  store i32 %16, ptr %6, align 4
  call void @llvm.lifetime.start.p0(i64 8, ptr %7) #10
  call void @llvm.lifetime.start.p0(i64 8, ptr %8) #10
  call void @llvm.lifetime.start.p0(i64 4, ptr %9) #10
  call void @llvm.lifetime.start.p0(i64 8, ptr %10) #10
  %17 = load i32, ptr %6, align 4
  %18 = sext i32 %17 to i64
  %19 = mul i64 %18, 8
  %20 = call ptr @palloc(i64 noundef %19)
  store ptr %20, ptr %7, align 8
  %21 = load i32, ptr %6, align 4
  %22 = sext i32 %21 to i64
  %23 = mul i64 %22, 1
  %24 = call ptr @palloc(i64 noundef %23)
  store ptr %24, ptr %8, align 8
  store i32 0, ptr %9, align 4
  br label %25

25:                                               ; preds = %94, %2
  %26 = load i32, ptr %9, align 4
  %27 = load i32, ptr %6, align 4
  %28 = icmp slt i32 %26, %27
  br i1 %28, label %29, label %97

29:                                               ; preds = %25
  %30 = load ptr, ptr %5, align 8
  %31 = load i32, ptr %9, align 4
  %32 = call ptr @TupleDescCompactAttr(ptr noundef %30, i32 noundef %31)
  %33 = getelementptr inbounds nuw %struct.CompactAttribute, ptr %32, i32 0, i32 5
  %34 = load i8, ptr %33, align 1, !range !4, !noundef !5
  %35 = trunc i8 %34 to i1
  br i1 %35, label %84, label %36

36:                                               ; preds = %29
  %37 = load ptr, ptr %3, align 8
  %38 = getelementptr inbounds nuw %struct.AttInMetadata, ptr %37, i32 0, i32 1
  %39 = load ptr, ptr %38, align 8
  %40 = load i32, ptr %9, align 4
  %41 = sext i32 %40 to i64
  %42 = getelementptr inbounds %struct.FmgrInfo, ptr %39, i64 %41
  %43 = load ptr, ptr %4, align 8
  %44 = load i32, ptr %9, align 4
  %45 = sext i32 %44 to i64
  %46 = getelementptr inbounds ptr, ptr %43, i64 %45
  %47 = load ptr, ptr %46, align 8
  %48 = load ptr, ptr %3, align 8
  %49 = getelementptr inbounds nuw %struct.AttInMetadata, ptr %48, i32 0, i32 2
  %50 = load ptr, ptr %49, align 8
  %51 = load i32, ptr %9, align 4
  %52 = sext i32 %51 to i64
  %53 = getelementptr inbounds i32, ptr %50, i64 %52
  %54 = load i32, ptr %53, align 4
  %55 = load ptr, ptr %3, align 8
  %56 = getelementptr inbounds nuw %struct.AttInMetadata, ptr %55, i32 0, i32 3
  %57 = load ptr, ptr %56, align 8
  %58 = load i32, ptr %9, align 4
  %59 = sext i32 %58 to i64
  %60 = getelementptr inbounds i32, ptr %57, i64 %59
  %61 = load i32, ptr %60, align 4
  %62 = call i64 @InputFunctionCall(ptr noundef %42, ptr noundef %47, i32 noundef %54, i32 noundef %61)
  %63 = load ptr, ptr %7, align 8
  %64 = load i32, ptr %9, align 4
  %65 = sext i32 %64 to i64
  %66 = getelementptr inbounds i64, ptr %63, i64 %65
  store i64 %62, ptr %66, align 8
  %67 = load ptr, ptr %4, align 8
  %68 = load i32, ptr %9, align 4
  %69 = sext i32 %68 to i64
  %70 = getelementptr inbounds ptr, ptr %67, i64 %69
  %71 = load ptr, ptr %70, align 8
  %72 = icmp ne ptr %71, null
  br i1 %72, label %73, label %78

73:                                               ; preds = %36
  %74 = load ptr, ptr %8, align 8
  %75 = load i32, ptr %9, align 4
  %76 = sext i32 %75 to i64
  %77 = getelementptr inbounds i8, ptr %74, i64 %76
  store i8 0, ptr %77, align 1
  br label %83

78:                                               ; preds = %36
  %79 = load ptr, ptr %8, align 8
  %80 = load i32, ptr %9, align 4
  %81 = sext i32 %80 to i64
  %82 = getelementptr inbounds i8, ptr %79, i64 %81
  store i8 1, ptr %82, align 1
  br label %83

83:                                               ; preds = %78, %73
  br label %93

84:                                               ; preds = %29
  %85 = load ptr, ptr %7, align 8
  %86 = load i32, ptr %9, align 4
  %87 = sext i32 %86 to i64
  %88 = getelementptr inbounds i64, ptr %85, i64 %87
  store i64 0, ptr %88, align 8
  %89 = load ptr, ptr %8, align 8
  %90 = load i32, ptr %9, align 4
  %91 = sext i32 %90 to i64
  %92 = getelementptr inbounds i8, ptr %89, i64 %91
  store i8 1, ptr %92, align 1
  br label %93

93:                                               ; preds = %84, %83
  br label %94

94:                                               ; preds = %93
  %95 = load i32, ptr %9, align 4
  %96 = add i32 %95, 1
  store i32 %96, ptr %9, align 4
  br label %25, !llvm.loop !17

97:                                               ; preds = %25
  %98 = load ptr, ptr %5, align 8
  %99 = load ptr, ptr %7, align 8
  %100 = load ptr, ptr %8, align 8
  %101 = call ptr @heap_form_tuple(ptr noundef %98, ptr noundef %99, ptr noundef %100)
  store ptr %101, ptr %10, align 8
  %102 = load ptr, ptr %7, align 8
  call void @pfree(ptr noundef %102)
  %103 = load ptr, ptr %8, align 8
  call void @pfree(ptr noundef %103)
  %104 = load ptr, ptr %10, align 8
  call void @llvm.lifetime.end.p0(i64 8, ptr %10) #10
  call void @llvm.lifetime.end.p0(i64 4, ptr %9) #10
  call void @llvm.lifetime.end.p0(i64 8, ptr %8) #10
  call void @llvm.lifetime.end.p0(i64 8, ptr %7) #10
  call void @llvm.lifetime.end.p0(i64 4, ptr %6) #10
  call void @llvm.lifetime.end.p0(i64 8, ptr %5) #10
  ret ptr %104
}